; ModuleID = '5/746.c'
source_filename = "5/746.c"
target datalayout = "e-m:e-p270:32:32-p271:32:32-p272:64:64-i64:64-f80:128-n8:16:32:64-S128"
target triple = "x86_64-pc-linux-gnu"

@.str = private unnamed_addr constant [4 x i8] c"%lf\00", align 1
@.str.1 = private unnamed_addr constant [5 x i8] c"%s%s\00", align 1
@.str.2 = private unnamed_addr constant [7 x i8] c"error\0A\00", align 1
@.str.3 = private unnamed_addr constant [5 x i8] c"yes\0A\00", align 1
@.str.4 = private unnamed_addr constant [4 x i8] c"no\0A\00", align 1

; Function Attrs: noinline nounwind uwtable
define dso_local i32 @main() #0 {
  %1 = alloca i32, align 4
  %2 = alloca [501 x i8], align 16
  %3 = alloca [501 x i8], align 16
  %4 = alloca i32, align 4
  %5 = alloca i32, align 4
  %6 = alloca i32, align 4
  %7 = alloca i32, align 4
  %8 = alloca double, align 8
  store i32 0, i32* %1, align 4
  store i32 0, i32* %6, align 4
  store i32 0, i32* %7, align 4
  %9 = call i32 (i8*, ...) @__isoc99_scanf(i8* getelementptr inbounds ([4 x i8], [4 x i8]* @.str, i64 0, i64 0), double* %8)
  %10 = getelementptr inbounds [501 x i8], [501 x i8]* %2, i64 0, i64 0
  %11 = getelementptr inbounds [501 x i8], [501 x i8]* %3, i64 0, i64 0
  %12 = call i32 (i8*, ...) @__isoc99_scanf(i8* getelementptr inbounds ([5 x i8], [5 x i8]* @.str.1, i64 0, i64 0), i8* %10, i8* %11)
  %13 = getelementptr inbounds [501 x i8], [501 x i8]* %2, i64 0, i64 0
  %14 = call i64 @strlen(i8* %13) #3
  %15 = trunc i64 %14 to i32
  store i32 %15, i32* %4, align 4
  store i32 0, i32* %5, align 4
  br label %16

16:                                               ; preds = %94, %0
  %17 = load i32, i32* %5, align 4
  %18 = load i32, i32* %4, align 4
  %19 = icmp slt i32 %17, %18
  br i1 %19, label %20, label %97

20:                                               ; preds = %16
  %21 = load i32, i32* %5, align 4
  %22 = sext i32 %21 to i64
  %23 = getelementptr inbounds [501 x i8], [501 x i8]* %2, i64 0, i64 %22
  %24 = load i8, i8* %23, align 1
  %25 = sext i8 %24 to i32
  %26 = icmp ne i32 %25, 65
  br i1 %26, label %27, label %48

27:                                               ; preds = %20
  %28 = load i32, i32* %5, align 4
  %29 = sext i32 %28 to i64
  %30 = getelementptr inbounds [501 x i8], [501 x i8]* %2, i64 0, i64 %29
  %31 = load i8, i8* %30, align 1
  %32 = sext i8 %31 to i32
  %33 = icmp ne i32 %32, 84
  br i1 %33, label %34, label %48

34:                                               ; preds = %27
  %35 = load i32, i32* %5, align 4
  %36 = sext i32 %35 to i64
  %37 = getelementptr inbounds [501 x i8], [501 x i8]* %2, i64 0, i64 %36
  %38 = load i8, i8* %37, align 1
  %39 = sext i8 %38 to i32
  %40 = icmp ne i32 %39, 67
  br i1 %40, label %41, label %48

41:                                               ; preds = %34
  %42 = load i32, i32* %5, align 4
  %43 = sext i32 %42 to i64
  %44 = getelementptr inbounds [501 x i8], [501 x i8]* %2, i64 0, i64 %43
  %45 = load i8, i8* %44, align 1
  %46 = sext i8 %45 to i32
  %47 = icmp ne i32 %46, 71
  br i1 %47, label %76, label %48

48:                                               ; preds = %41, %34, %27, %20
  %49 = load i32, i32* %5, align 4
  %50 = sext i32 %49 to i64
  %51 = getelementptr inbounds [501 x i8], [501 x i8]* %3, i64 0, i64 %50
  %52 = load i8, i8* %51, align 1
  %53 = sext i8 %52 to i32
  %54 = icmp ne i32 %53, 65
  br i1 %54, label %55, label %77

55:                                               ; preds = %48
  %56 = load i32, i32* %5, align 4
  %57 = sext i32 %56 to i64
  %58 = getelementptr inbounds [501 x i8], [501 x i8]* %3, i64 0, i64 %57
  %59 = load i8, i8* %58, align 1
  %60 = sext i8 %59 to i32
  %61 = icmp ne i32 %60, 84
  br i1 %61, label %62, label %77

62:                                               ; preds = %55
  %63 = load i32, i32* %5, align 4
  %64 = sext i32 %63 to i64
  %65 = getelementptr inbounds [501 x i8], [501 x i8]* %3, i64 0, i64 %64
  %66 = load i8, i8* %65, align 1
  %67 = sext i8 %66 to i32
  %68 = icmp ne i32 %67, 67
  br i1 %68, label %69, label %77

69:                                               ; preds = %62
  %70 = load i32, i32* %5, align 4
  %71 = sext i32 %70 to i64
  %72 = getelementptr inbounds [501 x i8], [501 x i8]* %3, i64 0, i64 %71
  %73 = load i8, i8* %72, align 1
  %74 = sext i8 %73 to i32
  %75 = icmp ne i32 %74, 71
  br i1 %75, label %76, label %77

76:                                               ; preds = %69, %41
  store i32 1, i32* %6, align 4
  br label %97

77:                                               ; preds = %69, %62, %55, %48
  %78 = load i32, i32* %5, align 4
  %79 = sext i32 %78 to i64
  %80 = getelementptr inbounds [501 x i8], [501 x i8]* %2, i64 0, i64 %79
  %81 = load i8, i8* %80, align 1
  %82 = sext i8 %81 to i32
  %83 = load i32, i32* %5, align 4
  %84 = sext i32 %83 to i64
  %85 = getelementptr inbounds [501 x i8], [501 x i8]* %3, i64 0, i64 %84
  %86 = load i8, i8* %85, align 1
  %87 = sext i8 %86 to i32
  %88 = icmp eq i32 %82, %87
  br i1 %88, label %89, label %92

89:                                               ; preds = %77
  %90 = load i32, i32* %7, align 4
  %91 = add nsw i32 %90, 1
  store i32 %91, i32* %7, align 4
  br label %92

92:                                               ; preds = %89, %77
  br label %93

93:                                               ; preds = %92
  br label %94

94:                                               ; preds = %93
  %95 = load i32, i32* %5, align 4
  %96 = add nsw i32 %95, 1
  store i32 %96, i32* %5, align 4
  br label %16

97:                                               ; preds = %76, %16
  %98 = load i32, i32* %6, align 4
  %99 = icmp eq i32 %98, 1
  br i1 %99, label %100, label %102

100:                                              ; preds = %97
  %101 = call i32 (i8*, ...) @printf(i8* getelementptr inbounds ([7 x i8], [7 x i8]* @.str.2, i64 0, i64 0))
  br label %116

102:                                              ; preds = %97
  %103 = load i32, i32* %7, align 4
  %104 = sitofp i32 %103 to double
  %105 = fmul double 1.000000e+00, %104
  %106 = load i32, i32* %4, align 4
  %107 = sitofp i32 %106 to double
  %108 = fdiv double %105, %107
  %109 = load double, double* %8, align 8
  %110 = fcmp ogt double %108, %109
  br i1 %110, label %111, label %113

111:                                              ; preds = %102
  %112 = call i32 (i8*, ...) @printf(i8* getelementptr inbounds ([5 x i8], [5 x i8]* @.str.3, i64 0, i64 0))
  br label %115

113:                                              ; preds = %102
  %114 = call i32 (i8*, ...) @printf(i8* getelementptr inbounds ([4 x i8], [4 x i8]* @.str.4, i64 0, i64 0))
  br label %115

115:                                              ; preds = %113, %111
  br label %116

116:                                              ; preds = %115, %100
  ret i32 0
}

declare dso_local i32 @__isoc99_scanf(i8*, ...) #1

; Function Attrs: nounwind readonly
declare dso_local i64 @strlen(i8*) #2

declare dso_local i32 @printf(i8*, ...) #1


!llvm.module.flags = !{!0}
!llvm.ident = !{!1}

!0 = !{i32 1, !"wchar_size", i32 4}
!1 = !{!"clang version 10.0.0-4ubuntu1 "}
