; ModuleID = 'source-C-CXX/4/746.c'
source_filename = "source-C-CXX/4/746.c"
target datalayout = "e-m:e-p270:32:32-p271:32:32-p272:64:64-i64:64-f80:128-n8:16:32:64-S128"
target triple = "x86_64-pc-linux-gnu"

@.str = private unnamed_addr constant [4 x i8] c"%lf\00", align 1
@.str.1 = private unnamed_addr constant [5 x i8] c"%s%s\00", align 1
@str = private unnamed_addr constant [3 x i8] c"no\00", align 1
@str.5 = private unnamed_addr constant [4 x i8] c"yes\00", align 1
@str.6 = private unnamed_addr constant [6 x i8] c"error\00", align 1

; Function Attrs: nofree nounwind sspstrong uwtable
define dso_local i32 @main() local_unnamed_addr #0 {
  %1 = alloca [501 x i8], align 16
  %2 = alloca [501 x i8], align 16
  %3 = alloca double, align 8
  %4 = getelementptr inbounds [501 x i8], [501 x i8]* %1, i64 0, i64 0
  call void @llvm.lifetime.start.p0i8(i64 501, i8* nonnull %4) #5
  %5 = getelementptr inbounds [501 x i8], [501 x i8]* %2, i64 0, i64 0
  call void @llvm.lifetime.start.p0i8(i64 501, i8* nonnull %5) #5
  %6 = bitcast double* %3 to i8*
  call void @llvm.lifetime.start.p0i8(i64 8, i8* nonnull %6) #5
  %7 = call i32 (i8*, ...) @__isoc99_scanf(i8* getelementptr inbounds ([4 x i8], [4 x i8]* @.str, i64 0, i64 0), double* nonnull %3)
  %8 = call i32 (i8*, ...) @__isoc99_scanf(i8* getelementptr inbounds ([5 x i8], [5 x i8]* @.str.1, i64 0, i64 0), i8* nonnull %4, i8* nonnull %5)
  %9 = call i64 @strlen(i8* noundef nonnull %4) #6
  %10 = trunc i64 %9 to i32
  %11 = icmp sgt i32 %10, 0
  br i1 %11, label %12, label %30

12:                                               ; preds = %0
  %13 = and i64 %9, 4294967295
  br label %14

14:                                               ; preds = %12, %22
  %15 = phi i64 [ 0, %12 ], [ %26, %22 ]
  %16 = phi i32 [ 0, %12 ], [ %25, %22 ]
  %17 = getelementptr inbounds [501 x i8], [501 x i8]* %1, i64 0, i64 %15
  %18 = load i8, i8* %17, align 1, !tbaa !5
  switch i8 %18, label %37 [
    i8 65, label %19
    i8 84, label %19
    i8 67, label %19
    i8 71, label %19
  ]

19:                                               ; preds = %14, %14, %14, %14
  %20 = getelementptr inbounds [501 x i8], [501 x i8]* %2, i64 0, i64 %15
  %21 = load i8, i8* %20, align 1, !tbaa !5
  switch i8 %21, label %37 [
    i8 65, label %22
    i8 84, label %22
    i8 67, label %22
    i8 71, label %22
  ]

22:                                               ; preds = %19, %19, %19, %19
  %23 = icmp eq i8 %18, %21
  %24 = zext i1 %23 to i32
  %25 = add nuw nsw i32 %16, %24
  %26 = add nuw nsw i64 %15, 1
  %27 = icmp eq i64 %26, %13
  br i1 %27, label %28, label %14, !llvm.loop !8

28:                                               ; preds = %22
  %29 = sitofp i32 %25 to double
  br label %30

30:                                               ; preds = %28, %0
  %31 = phi double [ 0.000000e+00, %0 ], [ %29, %28 ]
  %32 = sitofp i32 %10 to double
  %33 = fdiv double %31, %32
  %34 = load double, double* %3, align 8, !tbaa !10
  %35 = fcmp ogt double %33, %34
  %36 = select i1 %35, i8* getelementptr inbounds ([4 x i8], [4 x i8]* @str.5, i64 0, i64 0), i8* getelementptr inbounds ([3 x i8], [3 x i8]* @str, i64 0, i64 0)
  br label %37

37:                                               ; preds = %14, %19, %30
  %38 = phi i8* [ %36, %30 ], [ getelementptr inbounds ([6 x i8], [6 x i8]* @str.6, i64 0, i64 0), %19 ], [ getelementptr inbounds ([6 x i8], [6 x i8]* @str.6, i64 0, i64 0), %14 ]
  %39 = call i32 @puts(i8* nonnull dereferenceable(1) %38)
  call void @llvm.lifetime.end.p0i8(i64 8, i8* nonnull %6) #5
  call void @llvm.lifetime.end.p0i8(i64 501, i8* nonnull %5) #5
  call void @llvm.lifetime.end.p0i8(i64 501, i8* nonnull %4) #5
  ret i32 0
}

; Function Attrs: argmemonly mustprogress nofree nosync nounwind willreturn
declare void @llvm.lifetime.start.p0i8(i64 immarg, i8* nocapture) #1

; Function Attrs: nofree nounwind
declare noundef i32 @__isoc99_scanf(i8* nocapture noundef readonly, ...) local_unnamed_addr #2

; Function Attrs: argmemonly mustprogress nofree nounwind readonly willreturn
declare i64 @strlen(i8* nocapture) local_unnamed_addr #3

; Function Attrs: argmemonly mustprogress nofree nosync nounwind willreturn
declare void @llvm.lifetime.end.p0i8(i64 immarg, i8* nocapture) #1

; Function Attrs: nofree nounwind
declare noundef i32 @puts(i8* nocapture noundef readonly) local_unnamed_addr #4


!llvm.module.flags = !{!0, !1, !2, !3}
!llvm.ident = !{!4}

!0 = !{i32 1, !"wchar_size", i32 4}
!1 = !{i32 7, !"PIC Level", i32 2}
!2 = !{i32 7, !"PIE Level", i32 2}
!3 = !{i32 7, !"uwtable", i32 1}
!4 = !{!"clang version 13.0.0"}
!5 = !{!6, !6, i64 0}
!6 = !{!"omnipotent char", !7, i64 0}
!7 = !{!"Simple C/C++ TBAA"}
!8 = distinct !{!8, !9}
!9 = !{!"llvm.loop.mustprogress"}
!10 = !{!11, !11, i64 0}
!11 = !{!"double", !6, i64 0}
